target datalayout = "e-m:e-p270:32:32-p271:32:32-p272:64:64-i64:64-i128:128-f80:128-n8:16:32:64-S128"
target triple = "x86_64-pc-linux-gnu"

%struct.AVIOInterruptCB = type { ptr, ptr }

; Function Attrs: nounwind uwtable
define i32 @ff_check_interrupt(ptr noundef %0) #1 {
  %2 = alloca i32, align 4
  %3 = alloca ptr, align 8
  store ptr %0, ptr %3, align 8, !tbaa !69
  %4 = load ptr, ptr %3, align 8, !tbaa !69
  %5 = icmp ne ptr %4, null
  br i1 %5, label %6, label %19

6:                                                ; preds = %1
  %7 = load ptr, ptr %3, align 8, !tbaa !69
  %8 = getelementptr inbounds nuw %struct.AVIOInterruptCB, ptr %7, i32 0, i32 0
  %9 = load ptr, ptr %8, align 8, !tbaa !124
  %10 = icmp ne ptr %9, null
  br i1 %10, label %11, label %19

11:                                               ; preds = %6
  %12 = load ptr, ptr %3, align 8, !tbaa !69
  %13 = getelementptr inbounds nuw %struct.AVIOInterruptCB, ptr %12, i32 0, i32 0
  %14 = load ptr, ptr %13, align 8, !tbaa !124
  %15 = load ptr, ptr %3, align 8, !tbaa !69
  %16 = getelementptr inbounds nuw %struct.AVIOInterruptCB, ptr %15, i32 0, i32 1
  %17 = load ptr, ptr %16, align 8, !tbaa !125
  %18 = call i32 %14(ptr noundef %17)
  store i32 %18, ptr %2, align 4
  br label %20

19:                                               ; preds = %6, %1
  store i32 0, ptr %2, align 4
  br label %20

20:                                               ; preds = %19, %11
  %21 = load i32, ptr %2, align 4
  ret i32 %21
}