; Function Attrs: nounwind uwtable
define i32 @ff_check_interrupt(ptr noundef readonly captures(address_is_null) %0) local_unnamed_addr #3 {
  %.not = icmp eq ptr %0, null
  br i1 %.not, label %8, label %2

2:                                                ; preds = %1
  %3 = load ptr, ptr %0, align 8, !tbaa !19
  %.not6 = icmp eq ptr %3, null
  br i1 %.not6, label %8, label %4

4:                                                ; preds = %2
  %5 = getelementptr inbounds nuw i8, ptr %0, i64 8
  %6 = load ptr, ptr %5, align 8, !tbaa !20
  %7 = tail call i32 %3(ptr noundef %6) #12
  br label %8

8:                                                ; preds = %1, %2, %4
  %.0 = phi i32 [ %7, %4 ], [ 0, %2 ], [ 0, %1 ]
  ret i32 %.0
}